target datalayout = "e-m:e-p270:32:32-p271:32:32-p272:64:64-i64:64-i128:128-f80:128-n8:16:32:64-S128"
target triple = "x86_64-pc-linux-gnu"

; Function Attrs: inlinehint nounwind uwtable
define internal void @put_pixels2_8_c(ptr noundef %0, ptr noundef %1, i64 noundef %2, i32 noundef %3) #2 {
  %5 = alloca ptr, align 8
  %6 = alloca ptr, align 8
  %7 = alloca i64, align 8
  %8 = alloca i32, align 4
  %9 = alloca i32, align 4
  store ptr %0, ptr %5, align 8, !tbaa !12
  store ptr %1, ptr %6, align 8, !tbaa !12
  store i64 %2, ptr %7, align 8, !tbaa !14
  store i32 %3, ptr %8, align 4, !tbaa !9
  call void @llvm.lifetime.start.p0(i64 4, ptr %9) #4
  store i32 0, ptr %9, align 4, !tbaa !9
  br label %10

10:                                               ; preds = %24, %4
  %11 = load i32, ptr %9, align 4, !tbaa !9
  %12 = load i32, ptr %8, align 4, !tbaa !9
  %13 = icmp slt i32 %11, %12
  br i1 %13, label %14, label %27

14:                                               ; preds = %10
  %15 = load ptr, ptr %6, align 8, !tbaa !12
  %16 = load i16, ptr %15, align 1, !tbaa !16
  %17 = load ptr, ptr %5, align 8, !tbaa !12
  store i16 %16, ptr %17, align 2, !tbaa !23
  %18 = load i64, ptr %7, align 8, !tbaa !14
  %19 = load ptr, ptr %6, align 8, !tbaa !12
  %20 = getelementptr inbounds i8, ptr %19, i64 %18
  store ptr %20, ptr %6, align 8, !tbaa !12
  %21 = load i64, ptr %7, align 8, !tbaa !14
  %22 = load ptr, ptr %5, align 8, !tbaa !12
  %23 = getelementptr inbounds i8, ptr %22, i64 %21
  store ptr %23, ptr %5, align 8, !tbaa !12
  br label %24

24:                                               ; preds = %14
  %25 = load i32, ptr %9, align 4, !tbaa !9
  %26 = add nsw i32 %25, 1
  store i32 %26, ptr %9, align 4, !tbaa !9
  br label %10, !llvm.loop !25

27:                                               ; preds = %10
  call void @llvm.lifetime.end.p0(i64 4, ptr %9) #4
  ret void
}