; Function Attrs: inlinehint nofree norecurse nosync nounwind memory(argmem: readwrite) uwtable
define internal void @put_pixels2_8_c(ptr noundef writeonly captures(none) %0, ptr noundef readonly captures(none) %1, i64 noundef %2, i32 noundef %3) #2 {
  %5 = icmp sgt i32 %3, 0
  br i1 %5, label %.lr.ph, label %._crit_edge

.lr.ph:                                           ; preds = %4, %.lr.ph
  %.012 = phi i32 [ %9, %.lr.ph ], [ 0, %4 ]
  %.0811 = phi ptr [ %8, %.lr.ph ], [ %0, %4 ]
  %.0910 = phi ptr [ %7, %.lr.ph ], [ %1, %4 ]
  %6 = load i16, ptr %.0910, align 1, !tbaa !8
  store i16 %6, ptr %.0811, align 2, !tbaa !19
  %7 = getelementptr inbounds i8, ptr %.0910, i64 %2
  %8 = getelementptr inbounds i8, ptr %.0811, i64 %2
  %9 = add nuw nsw i32 %.012, 1
  %exitcond.not = icmp eq i32 %9, %3
  br i1 %exitcond.not, label %._crit_edge, label %.lr.ph, !llvm.loop !21

._crit_edge:                                      ; preds = %.lr.ph, %4
  ret void
}